; Function Attrs: nounwind uwtable
define internal fastcc i64 @bio_nread0(ptr noundef %0, ptr noundef writeonly captures(address_is_null) %1) unnamed_addr #1 {
  %3 = alloca i8, align 1
  tail call void @BIO_clear_flags(ptr noundef %0, i32 noundef 15) #8
  %4 = getelementptr inbounds nuw i8, ptr %0, i64 40
  %5 = load i32, ptr %4, align 8, !tbaa !8
  %.not = icmp eq i32 %5, 0
  br i1 %.not, label %67, label %6

6:                                                ; preds = %2
  %7 = getelementptr inbounds nuw i8, ptr %0, i64 64
  %8 = load ptr, ptr %7, align 8, !tbaa !20
  %9 = load ptr, ptr %8, align 8, !tbaa !30
  %10 = getelementptr inbounds nuw i8, ptr %9, i64 64
  %11 = load ptr, ptr %10, align 8, !tbaa !20
  %12 = getelementptr inbounds nuw i8, ptr %11, i64 48
  store i64 0, ptr %12, align 8, !tbaa !21
  %13 = getelementptr inbounds nuw i8, ptr %11, i64 16
  %14 = load i64, ptr %13, align 8, !tbaa !24
  %15 = icmp eq i64 %14, 0
  br i1 %15, label %16, label %55

16:                                               ; preds = %6
  call void @llvm.lifetime.start.p0(i64 1, ptr nonnull %3) #8
  tail call void @BIO_clear_flags(ptr noundef nonnull %0, i32 noundef 15) #8
  %17 = load i32, ptr %4, align 8, !tbaa !8
  %.not.i = icmp eq i32 %17, 0
  br i1 %.not.i, label %bio_read.exit, label %18

18:                                               ; preds = %16
  %19 = load ptr, ptr %7, align 8, !tbaa !20
  %20 = load ptr, ptr %19, align 8, !tbaa !30
  %21 = getelementptr inbounds nuw i8, ptr %20, i64 64
  %22 = load ptr, ptr %21, align 8, !tbaa !20
  %23 = getelementptr inbounds nuw i8, ptr %22, i64 48
  store i64 0, ptr %23, align 8, !tbaa !21
  %24 = getelementptr inbounds nuw i8, ptr %22, i64 16
  %25 = load i64, ptr %24, align 8, !tbaa !24
  %26 = icmp eq i64 %25, 0
  br i1 %26, label %27, label %34

27:                                               ; preds = %18
  %28 = getelementptr inbounds nuw i8, ptr %22, i64 8
  %29 = load i32, ptr %28, align 8, !tbaa !23
  %.not60.i = icmp eq i32 %29, 0
  br i1 %.not60.i, label %30, label %bio_read.exit

30:                                               ; preds = %27
  tail call void @BIO_set_flags(ptr noundef nonnull %0, i32 noundef 9) #8
  %31 = getelementptr inbounds nuw i8, ptr %22, i64 32
  %32 = load i64, ptr %31, align 8, !tbaa !25
  %33 = icmp ne i64 %32, 0
  %..i = zext i1 %33 to i64
  store i64 %..i, ptr %23, align 8, !tbaa !21
  br label %bio_read.exit

34:                                               ; preds = %18
  %35 = getelementptr inbounds nuw i8, ptr %22, i64 24
  %36 = getelementptr inbounds nuw i8, ptr %22, i64 32
  %37 = getelementptr inbounds nuw i8, ptr %22, i64 40
  %.pre.i = load i64, ptr %35, align 8, !tbaa !26
  br label %38

38:                                               ; preds = %53, %34
  %39 = phi i64 [ %.pre.i, %34 ], [ %spec.store.select.sink.i, %53 ]
  %.049.i = phi i64 [ 1, %34 ], [ %54, %53 ]
  %.048.i = phi ptr [ %3, %34 ], [ %.1.i, %53 ]
  %40 = add i64 %.049.i, %39
  %41 = load i64, ptr %36, align 8, !tbaa !25
  %.not57.i = icmp ugt i64 %40, %41
  %42 = sub i64 %41, %39
  %.0.i = select i1 %.not57.i, i64 %42, i64 %.049.i
  %43 = load ptr, ptr %37, align 8, !tbaa !27
  %44 = getelementptr inbounds nuw i8, ptr %43, i64 %39
  call void @llvm.memcpy.p0.p0.i64(ptr align 1 %.048.i, ptr align 1 %44, i64 %.0.i, i1 false)
  %45 = load i64, ptr %24, align 8, !tbaa !24
  %46 = sub i64 %45, %.0.i
  store i64 %46, ptr %24, align 8, !tbaa !24
  %.not58.i = icmp eq i64 %45, %.0.i
  br i1 %.not58.i, label %53, label %47

47:                                               ; preds = %38
  %48 = load i64, ptr %35, align 8, !tbaa !26
  %49 = add i64 %48, %.0.i
  %50 = load i64, ptr %36, align 8, !tbaa !25
  %51 = icmp eq i64 %49, %50
  %spec.store.select.i = select i1 %51, i64 0, i64 %49
  %52 = getelementptr inbounds nuw i8, ptr %.048.i, i64 %.0.i
  br label %53

53:                                               ; preds = %47, %38
  %spec.store.select.sink.i = phi i64 [ %spec.store.select.i, %47 ], [ 0, %38 ]
  %.1.i = phi ptr [ %52, %47 ], [ %.048.i, %38 ]
  store i64 %spec.store.select.sink.i, ptr %35, align 8
  %54 = sub i64 %.049.i, %.0.i
  %.not59.i = icmp eq i64 %54, 0
  br i1 %.not59.i, label %bio_read.exit, label %38, !llvm.loop !31

bio_read.exit:                                    ; preds = %53, %16, %27, %30
  %.047.i = phi i64 [ -1, %30 ], [ 0, %16 ], [ 0, %27 ], [ 1, %53 ]
  call void @llvm.lifetime.end.p0(i64 1, ptr nonnull %3) #8
  br label %67

55:                                               ; preds = %6
  %56 = getelementptr inbounds nuw i8, ptr %11, i64 32
  %57 = load i64, ptr %56, align 8, !tbaa !25
  %58 = getelementptr inbounds nuw i8, ptr %11, i64 24
  %59 = load i64, ptr %58, align 8, !tbaa !26
  %60 = add i64 %59, %14
  %61 = icmp ult i64 %57, %60
  %62 = sub i64 %57, %59
  %spec.select = select i1 %61, i64 %62, i64 %14
  %.not22 = icmp eq ptr %1, null
  br i1 %.not22, label %67, label %63

63:                                               ; preds = %55
  %64 = getelementptr inbounds nuw i8, ptr %11, i64 40
  %65 = load ptr, ptr %64, align 8, !tbaa !27
  %66 = getelementptr inbounds nuw i8, ptr %65, i64 %59
  store ptr %66, ptr %1, align 8, !tbaa !33
  br label %67

67:                                               ; preds = %55, %63, %2, %bio_read.exit
  %.018 = phi i64 [ %.047.i, %bio_read.exit ], [ 0, %2 ], [ %spec.select, %63 ], [ %spec.select, %55 ]
  ret i64 %.018
}